target datalayout = "e-m:e-p270:32:32-p271:32:32-p272:64:64-i64:64-i128:128-f80:128-n8:16:32:64-S128"
target triple = "x86_64-pc-linux-gnu"

%class.symbol = type { ptr }
%class.ast = type { i32, i32, i32, i32 }
%class.app = type { %class.expr, ptr, i32, %struct.app_flags, [0 x ptr] }
%class.expr = type { %class.ast }
%struct.app_flags = type <{ i16, i8, i8 }>
%class.quantifier = type { %class.expr, i32, i32, ptr, ptr, i32, i32, i8, i8, %class.symbol, %class.symbol, i32, i32, [0 x i8] }

; Function Attrs: mustprogress nounwind uwtable
define linkonce_odr hidden noundef i32 @_ZNK3ast8get_kindEv(ptr noundef nonnull align 4 dereferenceable(16) %0) #4 comdat align 2 {
  %2 = alloca ptr, align 8
  store ptr %0, ptr %2, align 8, !tbaa !23
  %3 = load ptr, ptr %2, align 8
  %4 = getelementptr inbounds nuw %class.ast, ptr %3, i32 0, i32 1
  %5 = load i32, ptr %4, align 4
  %6 = and i32 %5, 65535
  ret i32 %6
}

; Function Attrs: mustprogress nounwind uwtable
define linkonce_odr hidden noundef zeroext i1 @_ZNK10quantifier10has_labelsEv(ptr noundef nonnull align 8 dereferenceable(80) %0) #4 comdat align 2 {
  %2 = alloca ptr, align 8
  store ptr %0, ptr %2, align 8, !tbaa !137
  %3 = load ptr, ptr %2, align 8
  %4 = getelementptr inbounds nuw %class.quantifier, ptr %3, i32 0, i32 8
  %5 = load i8, ptr %4, align 1, !tbaa !149, !range !35, !noundef !36
  %6 = trunc i8 %5 to i1
  ret i1 %6
}

; Function Attrs: mustprogress nounwind uwtable
define linkonce_odr hidden noundef zeroext i1 @_ZNK3app10has_labelsEv(ptr noundef nonnull align 8 dereferenceable(32) %0) #4 comdat align 2 {
  %2 = alloca ptr, align 8
  store ptr %0, ptr %2, align 8, !tbaa !123
  %3 = load ptr, ptr %2, align 8
  %4 = getelementptr inbounds nuw %class.app, ptr %3, i32 0, i32 3
  %5 = getelementptr inbounds nuw %struct.app_flags, ptr %4, i32 0, i32 1
  %6 = load i8, ptr %5, align 2
  %7 = lshr i8 %6, 2
  %8 = and i8 %7, 1
  %9 = zext i8 %8 to i32
  %10 = icmp ne i32 %9, 0
  ret i1 %10
}

; Function Attrs: mustprogress nounwind uwtable
define linkonce_odr hidden noundef i32 @_ZNK10quantifier9get_depthEv(ptr noundef nonnull align 8 dereferenceable(80) %0) #4 comdat align 2 {
  %2 = alloca ptr, align 8
  store ptr %0, ptr %2, align 8, !tbaa !137
  %3 = load ptr, ptr %2, align 8
  %4 = getelementptr inbounds nuw %class.quantifier, ptr %3, i32 0, i32 5
  %5 = load i32, ptr %4, align 8, !tbaa !146
  ret i32 %5
}

; Function Attrs: inlinehint mustprogress nounwind uwtable
define linkonce_odr hidden noundef ptr @_Z13to_quantifierPK3ast(ptr noundef %0) #11 comdat {
  %2 = alloca ptr, align 8
  store ptr %0, ptr %2, align 8, !tbaa !23
  %3 = load ptr, ptr %2, align 8, !tbaa !23
  ret ptr %3
}

; Function Attrs: inlinehint mustprogress uwtable
define linkonce_odr hidden noundef zeroext i1 @_Z13is_quantifierPK3ast(ptr noundef %0) #9 comdat {
  %2 = alloca ptr, align 8
  store ptr %0, ptr %2, align 8, !tbaa !23
  %3 = load ptr, ptr %2, align 8, !tbaa !23
  %4 = call noundef i32 @_ZNK3ast8get_kindEv(ptr noundef nonnull align 4 dereferenceable(16) %3)
  %5 = icmp eq i32 %4, 2
  ret i1 %5
}

; Function Attrs: mustprogress nounwind uwtable
define linkonce_odr hidden noundef i32 @_ZNK3app9get_depthEv(ptr noundef nonnull align 8 dereferenceable(32) %0) #4 comdat align 2 {
  %2 = alloca ptr, align 8
  store ptr %0, ptr %2, align 8, !tbaa !123
  %3 = load ptr, ptr %2, align 8
  %4 = getelementptr inbounds nuw %class.app, ptr %3, i32 0, i32 3
  %5 = load i16, ptr %4, align 4
  %6 = zext i16 %5 to i32
  ret i32 %6
}

; Function Attrs: inlinehint mustprogress nounwind uwtable
define linkonce_odr hidden noundef ptr @_Z6to_appPK3ast(ptr noundef %0) #11 comdat {
  %2 = alloca ptr, align 8
  store ptr %0, ptr %2, align 8, !tbaa !23
  %3 = load ptr, ptr %2, align 8, !tbaa !23
  ret ptr %3
}

; Function Attrs: inlinehint mustprogress nounwind uwtable
define linkonce_odr hidden noundef zeroext i1 @_Z6is_appPK3ast(ptr noundef %0) #11 comdat {
  %2 = alloca ptr, align 8
  store ptr %0, ptr %2, align 8, !tbaa !23
  %3 = load ptr, ptr %2, align 8, !tbaa !23
  %4 = call noundef i32 @_ZNK3ast8get_kindEv(ptr noundef nonnull align 4 dereferenceable(16) %3)
  %5 = icmp eq i32 %4, 0
  ret i1 %5
}

; Function Attrs: mustprogress nounwind uwtable
define linkonce_odr hidden void @_ZN3astC2E8ast_kind(ptr noundef nonnull align 4 dereferenceable(16) %0, i32 noundef %1) unnamed_addr #4 comdat align 2 {
  %3 = alloca ptr, align 8
  %4 = alloca i32, align 4
  store ptr %0, ptr %3, align 8, !tbaa !23
  store i32 %1, ptr %4, align 4, !tbaa !108
  %5 = load ptr, ptr %3, align 8
  %6 = getelementptr inbounds nuw %class.ast, ptr %5, i32 0, i32 0
  store i32 -1, ptr %6, align 4, !tbaa !51
  %7 = getelementptr inbounds nuw %class.ast, ptr %5, i32 0, i32 1
  %8 = load i32, ptr %4, align 4, !tbaa !108
  %9 = load i32, ptr %7, align 4
  %10 = and i32 %8, 65535
  %11 = and i32 %9, -65536
  %12 = or i32 %11, %10
  store i32 %12, ptr %7, align 4
  %13 = getelementptr inbounds nuw %class.ast, ptr %5, i32 0, i32 1
  %14 = load i32, ptr %13, align 4
  %15 = and i32 %14, -65537
  %16 = or i32 %15, 0
  store i32 %16, ptr %13, align 4
  %17 = getelementptr inbounds nuw %class.ast, ptr %5, i32 0, i32 1
  %18 = load i32, ptr %17, align 4
  %19 = and i32 %18, -131073
  %20 = or i32 %19, 0
  store i32 %20, ptr %17, align 4
  %21 = getelementptr inbounds nuw %class.ast, ptr %5, i32 0, i32 1
  %22 = load i32, ptr %21, align 4
  %23 = and i32 %22, -262145
  %24 = or i32 %23, 0
  store i32 %24, ptr %21, align 4
  %25 = getelementptr inbounds nuw %class.ast, ptr %5, i32 0, i32 2
  store i32 0, ptr %25, align 4, !tbaa !403
  %26 = getelementptr inbounds nuw %class.ast, ptr %5, i32 0, i32 3
  store i32 0, ptr %26, align 4, !tbaa !37
  ret void
}

; Function Attrs: mustprogress nounwind uwtable
define linkonce_odr hidden noundef ptr @_ZNK10quantifier14get_decl_namesEv(ptr noundef nonnull align 8 dereferenceable(80) %0) #4 comdat align 2 {
  %2 = alloca ptr, align 8
  store ptr %0, ptr %2, align 8, !tbaa !137
  %3 = load ptr, ptr %2, align 8
  %4 = call noundef ptr @_ZNK10quantifier14get_decl_sortsEv(ptr noundef nonnull align 8 dereferenceable(80) %3)
  %5 = getelementptr inbounds nuw %class.quantifier, ptr %3, i32 0, i32 2
  %6 = load i32, ptr %5, align 4, !tbaa !143
  %7 = zext i32 %6 to i64
  %8 = getelementptr inbounds nuw ptr, ptr %4, i64 %7
  ret ptr %8
}

; Function Attrs: mustprogress nounwind uwtable
define linkonce_odr hidden noundef ptr @_ZNK10quantifier14get_decl_sortsEv(ptr noundef nonnull align 8 dereferenceable(80) %0) #4 comdat align 2 {
  %2 = alloca ptr, align 8
  store ptr %0, ptr %2, align 8, !tbaa !137
  %3 = load ptr, ptr %2, align 8
  %4 = getelementptr inbounds nuw %class.quantifier, ptr %3, i32 0, i32 13
  %5 = getelementptr inbounds [0 x i8], ptr %4, i64 0, i64 0
  ret ptr %5
}

; Function Attrs: mustprogress nounwind uwtable
define linkonce_odr hidden void @_ZN6symbolC2Ev(ptr noundef nonnull align 8 dereferenceable(8) %0) unnamed_addr #4 comdat align 2 {
  %2 = alloca ptr, align 8
  store ptr %0, ptr %2, align 8, !tbaa !42
  %3 = load ptr, ptr %2, align 8
  %4 = getelementptr inbounds nuw %class.symbol, ptr %3, i32 0, i32 0
  store ptr null, ptr %4, align 8, !tbaa !44
  ret void
}

; Function Attrs: inlinehint mustprogress uwtable
define linkonce_odr hidden noundef zeroext i1 @_Z10has_labelsPK4expr(ptr noundef %0) #9 comdat {
  %2 = alloca i1, align 1
  %3 = alloca ptr, align 8
  store ptr %0, ptr %3, align 8, !tbaa !132
  %4 = load ptr, ptr %3, align 8, !tbaa !132
  %5 = call noundef zeroext i1 @_Z6is_appPK3ast(ptr noundef %4)
  br i1 %5, label %6, label %10

6:                                                ; preds = %1
  %7 = load ptr, ptr %3, align 8, !tbaa !132
  %8 = call noundef ptr @_Z6to_appPK3ast(ptr noundef %7)
  %9 = call noundef zeroext i1 @_ZNK3app10has_labelsEv(ptr noundef nonnull align 8 dereferenceable(32) %8)
  store i1 %9, ptr %2, align 1
  br label %18

10:                                               ; preds = %1
  %11 = load ptr, ptr %3, align 8, !tbaa !132
  %12 = call noundef zeroext i1 @_Z13is_quantifierPK3ast(ptr noundef %11)
  br i1 %12, label %13, label %17

13:                                               ; preds = %10
  %14 = load ptr, ptr %3, align 8, !tbaa !132
  %15 = call noundef ptr @_Z13to_quantifierPK3ast(ptr noundef %14)
  %16 = call noundef zeroext i1 @_ZNK10quantifier10has_labelsEv(ptr noundef nonnull align 8 dereferenceable(80) %15)
  store i1 %16, ptr %2, align 1
  br label %18

17:                                               ; preds = %10
  store i1 false, ptr %2, align 1
  br label %18

18:                                               ; preds = %17, %13, %6
  %19 = load i1, ptr %2, align 1
  ret i1 %19
}

; Function Attrs: inlinehint mustprogress uwtable
define linkonce_odr hidden noundef i32 @_Z9get_depthPK4expr(ptr noundef %0) #9 comdat {
  %2 = alloca i32, align 4
  %3 = alloca ptr, align 8
  store ptr %0, ptr %3, align 8, !tbaa !132
  %4 = load ptr, ptr %3, align 8, !tbaa !132
  %5 = call noundef zeroext i1 @_Z6is_appPK3ast(ptr noundef %4)
  br i1 %5, label %6, label %10

6:                                                ; preds = %1
  %7 = load ptr, ptr %3, align 8, !tbaa !132
  %8 = call noundef ptr @_Z6to_appPK3ast(ptr noundef %7)
  %9 = call noundef i32 @_ZNK3app9get_depthEv(ptr noundef nonnull align 8 dereferenceable(32) %8)
  store i32 %9, ptr %2, align 4
  br label %18

10:                                               ; preds = %1
  %11 = load ptr, ptr %3, align 8, !tbaa !132
  %12 = call noundef zeroext i1 @_Z13is_quantifierPK3ast(ptr noundef %11)
  br i1 %12, label %13, label %17

13:                                               ; preds = %10
  %14 = load ptr, ptr %3, align 8, !tbaa !132
  %15 = call noundef ptr @_Z13to_quantifierPK3ast(ptr noundef %14)
  %16 = call noundef i32 @_ZNK10quantifier9get_depthEv(ptr noundef nonnull align 8 dereferenceable(80) %15)
  store i32 %16, ptr %2, align 4
  br label %18

17:                                               ; preds = %10
  store i32 1, ptr %2, align 4
  br label %18

18:                                               ; preds = %17, %13, %6
  %19 = load i32, ptr %2, align 4
  ret i32 %19
}

; Function Attrs: mustprogress nounwind uwtable
define linkonce_odr hidden void @_ZN4exprC2E8ast_kind(ptr noundef nonnull align 4 dereferenceable(16) %0, i32 noundef %1) unnamed_addr #4 comdat align 2 {
  %3 = alloca ptr, align 8
  %4 = alloca i32, align 4
  store ptr %0, ptr %3, align 8, !tbaa !132
  store i32 %1, ptr %4, align 4, !tbaa !108
  %5 = load ptr, ptr %3, align 8
  %6 = load i32, ptr %4, align 4, !tbaa !108
  call void @_ZN3astC2E8ast_kind(ptr noundef nonnull align 4 dereferenceable(16) %5, i32 noundef %6)
  ret void
}

; Function Attrs: mustprogress uwtable
define hidden void @_ZN10quantifierC2EjPKP4sortPK6symbolP4exprS1_(ptr noundef nonnull align 8 dereferenceable(80) %0, i32 noundef %1, ptr noundef %2, ptr noundef %3, ptr noundef %4, ptr noundef %5) unnamed_addr #6 align 2 {
  %7 = alloca ptr, align 8
  %8 = alloca i32, align 4
  %9 = alloca ptr, align 8
  %10 = alloca ptr, align 8
  %11 = alloca ptr, align 8
  %12 = alloca ptr, align 8
  store ptr %0, ptr %7, align 8, !tbaa !137
  store i32 %1, ptr %8, align 4, !tbaa !25
  store ptr %2, ptr %9, align 8, !tbaa !112
  store ptr %3, ptr %10, align 8, !tbaa !42
  store ptr %4, ptr %11, align 8, !tbaa !132
  store ptr %5, ptr %12, align 8, !tbaa !114
  %13 = load ptr, ptr %7, align 8
  call void @_ZN4exprC2E8ast_kind(ptr noundef nonnull align 4 dereferenceable(16) %13, i32 noundef 2)
  %14 = getelementptr inbounds nuw %class.quantifier, ptr %13, i32 0, i32 1
  store i32 2, ptr %14, align 8, !tbaa !141
  %15 = getelementptr inbounds nuw %class.quantifier, ptr %13, i32 0, i32 2
  %16 = load i32, ptr %8, align 4, !tbaa !25
  store i32 %16, ptr %15, align 4, !tbaa !143
  %17 = getelementptr inbounds nuw %class.quantifier, ptr %13, i32 0, i32 3
  %18 = load ptr, ptr %11, align 8, !tbaa !132
  store ptr %18, ptr %17, align 8, !tbaa !144
  %19 = getelementptr inbounds nuw %class.quantifier, ptr %13, i32 0, i32 4
  %20 = load ptr, ptr %12, align 8, !tbaa !114
  store ptr %20, ptr %19, align 8, !tbaa !145
  %21 = getelementptr inbounds nuw %class.quantifier, ptr %13, i32 0, i32 5
  %22 = load ptr, ptr %11, align 8, !tbaa !132
  %23 = call noundef i32 @_Z9get_depthPK4expr(ptr noundef %22)
  %24 = add i32 %23, 1
  store i32 %24, ptr %21, align 8, !tbaa !146
  %25 = getelementptr inbounds nuw %class.quantifier, ptr %13, i32 0, i32 6
  store i32 1, ptr %25, align 4, !tbaa !147
  %26 = getelementptr inbounds nuw %class.quantifier, ptr %13, i32 0, i32 7
  store i8 1, ptr %26, align 8, !tbaa !148
  %27 = getelementptr inbounds nuw %class.quantifier, ptr %13, i32 0, i32 8
  %28 = load ptr, ptr %11, align 8, !tbaa !132
  %29 = call noundef zeroext i1 @_Z10has_labelsPK4expr(ptr noundef %28)
  %30 = zext i1 %29 to i8
  store i8 %30, ptr %27, align 1, !tbaa !149
  %31 = getelementptr inbounds nuw %class.quantifier, ptr %13, i32 0, i32 9
  call void @llvm.memset.p0.i64(ptr align 8 %31, i8 0, i64 8, i1 false)
  call void @_ZN6symbolC2Ev(ptr noundef nonnull align 8 dereferenceable(8) %31) #3
  %32 = getelementptr inbounds nuw %class.quantifier, ptr %13, i32 0, i32 10
  call void @llvm.memset.p0.i64(ptr align 8 %32, i8 0, i64 8, i1 false)
  call void @_ZN6symbolC2Ev(ptr noundef nonnull align 8 dereferenceable(8) %32) #3
  %33 = getelementptr inbounds nuw %class.quantifier, ptr %13, i32 0, i32 11
  store i32 0, ptr %33, align 8, !tbaa !150
  %34 = getelementptr inbounds nuw %class.quantifier, ptr %13, i32 0, i32 12
  store i32 0, ptr %34, align 4, !tbaa !151
  %35 = call noundef ptr @_ZNK10quantifier14get_decl_sortsEv(ptr noundef nonnull align 8 dereferenceable(80) %13)
  %36 = load ptr, ptr %9, align 8, !tbaa !112
  %37 = load i32, ptr %8, align 4, !tbaa !25
  %38 = zext i32 %37 to i64
  %39 = mul i64 8, %38
  call void @llvm.memcpy.p0.p0.i64(ptr align 8 %35, ptr align 8 %36, i64 %39, i1 false)
  %40 = call noundef ptr @_ZNK10quantifier14get_decl_namesEv(ptr noundef nonnull align 8 dereferenceable(80) %13)
  %41 = load ptr, ptr %10, align 8, !tbaa !42
  %42 = load i32, ptr %8, align 4, !tbaa !25
  %43 = zext i32 %42 to i64
  %44 = mul i64 8, %43
  call void @llvm.memcpy.p0.p0.i64(ptr align 8 %40, ptr align 8 %41, i64 %44, i1 false)
  ret void
}