; Function Attrs: mustprogress nofree norecurse nosync nounwind willreturn memory(argmem: readwrite) uwtable
define hidden void @_ZN10quantifierC2EjPKP4sortPK6symbolP4exprS1_(ptr noundef nonnull align 8 captures(none) dereferenceable(80) initializes((0, 4), (8, 50), (56, 80)) %0, i32 noundef %1, ptr noundef readonly captures(none) %2, ptr noundef readonly captures(none) %3, ptr noundef %4, ptr noundef %5) unnamed_addr #13 align 2 {
  store i32 -1, ptr %0, align 8, !tbaa !73
  %7 = getelementptr inbounds nuw i8, ptr %0, i64 4
  %8 = load i32, ptr %7, align 4
  %9 = and i32 %8, -524288
  %10 = or disjoint i32 %9, 2
  store i32 %10, ptr %7, align 4
  %11 = getelementptr inbounds nuw i8, ptr %0, i64 8
  store i32 0, ptr %11, align 8, !tbaa !31
  %12 = getelementptr inbounds nuw i8, ptr %0, i64 12
  store i32 0, ptr %12, align 4, !tbaa !49
  %13 = getelementptr inbounds nuw i8, ptr %0, i64 16
  store i32 2, ptr %13, align 8, !tbaa !127
  %14 = getelementptr inbounds nuw i8, ptr %0, i64 20
  store i32 %1, ptr %14, align 4, !tbaa !130
  %15 = getelementptr inbounds nuw i8, ptr %0, i64 24
  store ptr %4, ptr %15, align 8, !tbaa !131
  %16 = getelementptr inbounds nuw i8, ptr %0, i64 32
  store ptr %5, ptr %16, align 8, !tbaa !132
  %17 = getelementptr inbounds nuw i8, ptr %0, i64 40
  %18 = getelementptr inbounds nuw i8, ptr %4, i64 4
  %19 = load i32, ptr %18, align 4
  %trunc.i = trunc i32 %19 to i16
  switch i16 %trunc.i, label %_Z9get_depthPK4expr.exit [
    i16 0, label %20
    i16 2, label %24
  ]

20:                                               ; preds = %6
  %21 = getelementptr inbounds nuw i8, ptr %4, i64 28
  %22 = load i16, ptr %21, align 4
  %23 = zext i16 %22 to i32
  br label %_Z9get_depthPK4expr.exit

24:                                               ; preds = %6
  %25 = getelementptr inbounds nuw i8, ptr %4, i64 40
  %26 = load i32, ptr %25, align 8, !tbaa !133
  br label %_Z9get_depthPK4expr.exit

_Z9get_depthPK4expr.exit:                         ; preds = %6, %20, %24
  %.0.i = phi i32 [ %23, %20 ], [ %26, %24 ], [ 1, %6 ]
  %27 = add i32 %.0.i, 1
  store i32 %27, ptr %17, align 8, !tbaa !133
  %28 = getelementptr inbounds nuw i8, ptr %0, i64 44
  store i32 1, ptr %28, align 4, !tbaa !134
  %29 = getelementptr inbounds nuw i8, ptr %0, i64 48
  store i8 1, ptr %29, align 8, !tbaa !135
  %30 = load i32, ptr %18, align 4
  %trunc.i9 = trunc i32 %30 to i16
  switch i16 %trunc.i9, label %_Z10has_labelsPK4expr.exit [
    i16 0, label %31
    i16 2, label %36
  ]

31:                                               ; preds = %_Z9get_depthPK4expr.exit
  %32 = getelementptr inbounds nuw i8, ptr %4, i64 30
  %33 = load i8, ptr %32, align 2
  %34 = and i8 %33, 4
  %35 = icmp ne i8 %34, 0
  br label %_Z10has_labelsPK4expr.exit

36:                                               ; preds = %_Z9get_depthPK4expr.exit
  %37 = getelementptr inbounds nuw i8, ptr %4, i64 49
  %38 = load i8, ptr %37, align 1, !tbaa !136, !range !47, !noundef !48
  %39 = trunc nuw i8 %38 to i1
  br label %_Z10has_labelsPK4expr.exit

_Z10has_labelsPK4expr.exit:                       ; preds = %_Z9get_depthPK4expr.exit, %31, %36
  %.0.i10 = phi i1 [ %35, %31 ], [ %39, %36 ], [ false, %_Z9get_depthPK4expr.exit ]
  %40 = getelementptr inbounds nuw i8, ptr %0, i64 49
  %41 = zext i1 %.0.i10 to i8
  store i8 %41, ptr %40, align 1, !tbaa !136
  %42 = getelementptr inbounds nuw i8, ptr %0, i64 56
  %43 = getelementptr inbounds nuw i8, ptr %0, i64 80
  %44 = zext i32 %1 to i64
  %45 = shl nuw nsw i64 %44, 3
  tail call void @llvm.memset.p0.i64(ptr noundef nonnull align 8 dereferenceable(24) %42, i8 0, i64 24, i1 false)
  tail call void @llvm.memcpy.p0.p0.i64(ptr nonnull align 8 %43, ptr align 8 %2, i64 %45, i1 false)
  %46 = getelementptr inbounds nuw ptr, ptr %43, i64 %44
  tail call void @llvm.memcpy.p0.p0.i64(ptr nonnull align 8 %46, ptr align 8 %3, i64 %45, i1 false)
  ret void
}